; Function Attrs: nounwind uwtable
define internal range(i32 0, 2) i32 @encode_case_16b_dec(ptr noundef %0, i64 %1) #0 {
  %3 = alloca %struct.ossl_quic_frame_new_conn_id_st, align 8
  call void @llvm.lifetime.start.p0(i64 56, ptr nonnull %3) #4
  call void @llvm.memset.p0.i64(ptr noundef nonnull align 8 dereferenceable(56) %3, i8 0, i64 56, i1 false)
  %4 = call i32 @ossl_quic_wire_decode_frame_new_conn_id(ptr noundef %0, ptr noundef nonnull %3) #4
  %5 = call i32 @test_int_eq(ptr noundef nonnull @.str.5, i32 noundef 836, ptr noundef nonnull @.str.109, ptr noundef nonnull @.str.68, i32 noundef %4, i32 noundef 0) #4
  %.not = icmp eq i32 %5, 0
  br i1 %.not, label %10, label %PACKET_forward.exit

PACKET_forward.exit:                              ; preds = %2
  %6 = getelementptr i8, ptr %0, i64 8
  %.val = load i64, ptr %6, align 8, !tbaa !18
  %7 = load ptr, ptr %0, align 8, !tbaa !16
  %8 = getelementptr inbounds nuw i8, ptr %7, i64 %.val
  store ptr %8, ptr %0, align 8, !tbaa !16
  store i64 0, ptr %6, align 8, !tbaa !18
  %9 = call i32 @test_true(ptr noundef nonnull @.str.5, i32 noundef 839, ptr noundef nonnull @.str.120, i32 noundef 1) #4
  %.not3 = icmp ne i32 %9, 0
  %. = zext i1 %.not3 to i32
  br label %10

10:                                               ; preds = %PACKET_forward.exit, %2
  %.0 = phi i32 [ 0, %2 ], [ %., %PACKET_forward.exit ]
  call void @llvm.lifetime.end.p0(i64 56, ptr nonnull %3) #4
  ret i32 %.0
}